
firmware.elf:     file format elf32-littlearm


Disassembly of section .text:

08000000 <vectors>:
 8000000:	00 50 00 20 bb 01 00 08 b5 01 00 08 b5 01 00 08     .P. ............
 8000010:	b5 01 00 08 b5 01 00 08 b5 01 00 08 00 00 00 00     ................
 8000020:	b5 01 00 08 b5 01 00 08 00 00 00 00 b5 01 00 08     ................
 8000030:	b5 01 00 08 b5 01 00 08 b5 01 00 08 b5 01 00 08     ................
 8000040:	b5 01 00 08 b5 01 00 08 b5 01 00 08 b5 01 00 08     ................
 8000050:	b5 01 00 08 b5 01 00 08 b5 01 00 08 b5 01 00 08     ................
 8000060:	b5 01 00 08 b5 01 00 08 b5 01 00 08 b5 01 00 08     ................
 8000070:	b5 01 00 08 b5 01 00 08 b5 01 00 08 b5 01 00 08     ................
 8000080:	b5 01 00 08 b5 01 00 08 b5 01 00 08 b5 01 00 08     ................
 8000090:	b5 01 00 08 b5 01 00 08 b5 01 00 08 b5 01 00 08     ................
 80000a0:	b5 01 00 08 b5 01 00 08 b5 01 00 08 b5 01 00 08     ................
 80000b0:	b5 01 00 08 b5 01 00 08 b5 01 00 08 b5 01 00 08     ................
 80000c0:	b5 01 00 08 b5 01 00 08 b5 01 00 08 b5 01 00 08     ................
 80000d0:	b5 01 00 08 b5 01 00 08 b5 01 00 08 b5 01 00 08     ................
 80000e0:	b5 01 00 08 b5 01 00 08 b5 01 00 08 b5 01 00 08     ................
 80000f0:	b5 01 00 08 b5 01 00 08 b5 01 00 08 b5 01 00 08     ................
 8000100:	b5 01 00 08 b5 01 00 08 b5 01 00 08 b5 01 00 08     ................
 8000110:	b5 01 00 08 b5 01 00 08 b5 01 00 08 b5 01 00 08     ................
 8000120:	b5 01 00 08                                         ....

08000124 <init>:
 8000124:	b480      	push	{r7}
 8000126:	af00      	add	r7, sp, #0
 8000128:	4b09      	ldr	r3, [pc, #36]	; (8000150 <init+0x2c>)
 800012a:	699b      	ldr	r3, [r3, #24]
 800012c:	4a08      	ldr	r2, [pc, #32]	; (8000150 <init+0x2c>)
 800012e:	f043 0304 	orr.w	r3, r3, #4
 8000132:	6193      	str	r3, [r2, #24]
 8000134:	4b06      	ldr	r3, [pc, #24]	; (8000150 <init+0x2c>)
 8000136:	68db      	ldr	r3, [r3, #12]
 8000138:	4a05      	ldr	r2, [pc, #20]	; (8000150 <init+0x2c>)
 800013a:	f043 0304 	orr.w	r3, r3, #4
 800013e:	60d3      	str	r3, [r2, #12]
 8000140:	4b04      	ldr	r3, [pc, #16]	; (8000154 <init+0x30>)
 8000142:	2201      	movs	r2, #1
 8000144:	601a      	str	r2, [r3, #0]
 8000146:	bf00      	nop
 8000148:	46bd      	mov	sp, r7
 800014a:	bc80      	pop	{r7}
 800014c:	4770      	bx	lr
 800014e:	bf00      	nop
 8000150:	40021000 	.word	0x40021000
 8000154:	40010800 	.word	0x40010800

08000158 <toggle>:
 8000158:	b480      	push	{r7}
 800015a:	af00      	add	r7, sp, #0
 800015c:	4b04      	ldr	r3, [pc, #16]	; (8000170 <toggle+0x18>)
 800015e:	68db      	ldr	r3, [r3, #12]
 8000160:	4a03      	ldr	r2, [pc, #12]	; (8000170 <toggle+0x18>)
 8000162:	f083 0301 	eor.w	r3, r3, #1
 8000166:	60d3      	str	r3, [r2, #12]
 8000168:	bf00      	nop
 800016a:	46bd      	mov	sp, r7
 800016c:	bc80      	pop	{r7}
 800016e:	4770      	bx	lr
 8000170:	40010800 	.word	0x40010800

08000174 <delay_us>:
 8000174:	b480      	push	{r7}
 8000176:	b083      	sub	sp, #12
 8000178:	af00      	add	r7, sp, #0
 800017a:	6078      	str	r0, [r7, #4]
 800017c:	687a      	ldr	r2, [r7, #4]
 800017e:	4613      	mov	r3, r2
 8000180:	00db      	lsls	r3, r3, #3
 8000182:	4413      	add	r3, r2
 8000184:	607b      	str	r3, [r7, #4]
 8000186:	687b      	ldr	r3, [r7, #4]
 8000188:	3b01      	subs	r3, #1
 800018a:	607b      	str	r3, [r7, #4]
 800018c:	687b      	ldr	r3, [r7, #4]
 800018e:	4618      	mov	r0, r3
 8000190:	3801      	subs	r0, #1
 8000192:	d8fd      	bhi.n	8000190 <delay_us+0x1c>
 8000194:	bf00      	nop
 8000196:	370c      	adds	r7, #12
 8000198:	46bd      	mov	sp, r7
 800019a:	bc80      	pop	{r7}
 800019c:	4770      	bx	lr

0800019e <main>:
 800019e:	b580      	push	{r7, lr}
 80001a0:	af00      	add	r7, sp, #0
 80001a2:	f7ff ffbf 	bl	8000124 <init>
 80001a6:	f7ff ffd7 	bl	8000158 <toggle>
 80001aa:	f247 5030 	movw	r0, #30000	; 0x7530
 80001ae:	f7ff ffe1 	bl	8000174 <delay_us>
 80001b2:	e7f8      	b.n	80001a6 <main+0x8>

080001b4 <I_Default>:
 80001b4:	b480      	push	{r7}
 80001b6:	af00      	add	r7, sp, #0
 80001b8:	e7fe      	b.n	80001b8 <I_Default+0x4>

080001ba <I_Reset>:
 80001ba:	b580      	push	{r7, lr}
 80001bc:	b088      	sub	sp, #32
 80001be:	af00      	add	r7, sp, #0
 80001c0:	4a1d      	ldr	r2, [pc, #116]	; (8000238 <I_Reset+0x7e>)
 80001c2:	4b1e      	ldr	r3, [pc, #120]	; (800023c <I_Reset+0x82>)
 80001c4:	1ad3      	subs	r3, r2, r3
 80001c6:	109b      	asrs	r3, r3, #2
 80001c8:	60bb      	str	r3, [r7, #8]
 80001ca:	4a1d      	ldr	r2, [pc, #116]	; (8000240 <I_Reset+0x86>)
 80001cc:	4b1d      	ldr	r3, [pc, #116]	; (8000244 <I_Reset+0x8a>)
 80001ce:	1ad3      	subs	r3, r2, r3
 80001d0:	109b      	asrs	r3, r3, #2
 80001d2:	607b      	str	r3, [r7, #4]
 80001d4:	4a1c      	ldr	r2, [pc, #112]	; (8000248 <I_Reset+0x8e>)
 80001d6:	4b1d      	ldr	r3, [pc, #116]	; (800024c <I_Reset+0x92>)
 80001d8:	1ad3      	subs	r3, r2, r3
 80001da:	109b      	asrs	r3, r3, #2
 80001dc:	603b      	str	r3, [r7, #0]
 80001de:	4b1b      	ldr	r3, [pc, #108]	; (800024c <I_Reset+0x92>)
 80001e0:	61fb      	str	r3, [r7, #28]
 80001e2:	4b16      	ldr	r3, [pc, #88]	; (800023c <I_Reset+0x82>)
 80001e4:	61bb      	str	r3, [r7, #24]
 80001e6:	4b16      	ldr	r3, [pc, #88]	; (8000240 <I_Reset+0x86>)
 80001e8:	617b      	str	r3, [r7, #20]
 80001ea:	2300      	movs	r3, #0
 80001ec:	613b      	str	r3, [r7, #16]
 80001ee:	e00a      	b.n	8000206 <I_Reset+0x4c>
 80001f0:	697a      	ldr	r2, [r7, #20]
 80001f2:	1c53      	adds	r3, r2, #1
 80001f4:	617b      	str	r3, [r7, #20]
 80001f6:	69bb      	ldr	r3, [r7, #24]
 80001f8:	1c59      	adds	r1, r3, #1
 80001fa:	61b9      	str	r1, [r7, #24]
 80001fc:	7812      	ldrb	r2, [r2, #0]
 80001fe:	701a      	strb	r2, [r3, #0]
 8000200:	693b      	ldr	r3, [r7, #16]
 8000202:	3301      	adds	r3, #1
 8000204:	613b      	str	r3, [r7, #16]
 8000206:	693a      	ldr	r2, [r7, #16]
 8000208:	68bb      	ldr	r3, [r7, #8]
 800020a:	429a      	cmp	r2, r3
 800020c:	d3f0      	bcc.n	80001f0 <I_Reset+0x36>
 800020e:	2300      	movs	r3, #0
 8000210:	60fb      	str	r3, [r7, #12]
 8000212:	e007      	b.n	8000224 <I_Reset+0x6a>
 8000214:	69fb      	ldr	r3, [r7, #28]
 8000216:	1c5a      	adds	r2, r3, #1
 8000218:	61fa      	str	r2, [r7, #28]
 800021a:	2200      	movs	r2, #0
 800021c:	701a      	strb	r2, [r3, #0]
 800021e:	68fb      	ldr	r3, [r7, #12]
 8000220:	3301      	adds	r3, #1
 8000222:	60fb      	str	r3, [r7, #12]
 8000224:	68fa      	ldr	r2, [r7, #12]
 8000226:	683b      	ldr	r3, [r7, #0]
 8000228:	429a      	cmp	r2, r3
 800022a:	d3f3      	bcc.n	8000214 <I_Reset+0x5a>
 800022c:	f7ff ffb7 	bl	800019e <main>
 8000230:	bf00      	nop
 8000232:	3720      	adds	r7, #32
 8000234:	46bd      	mov	sp, r7
 8000236:	bd80      	pop	{r7, pc}
 8000238:	20000004 	.word	0x20000004
 800023c:	20000000 	.word	0x20000000
 8000240:	08000258 	.word	0x08000258
 8000244:	08000000 	.word	0x08000000
 8000248:	20000004 	.word	0x20000004
 800024c:	20000004 	.word	0x20000004
 8000250:	6c6c6548 	.word	0x6c6c6548
 8000254:	0000006f 	.word	0x0000006f
